; ModuleID = '32/2139.c'
source_filename = "32/2139.c"
target datalayout = "e-m:e-p270:32:32-p271:32:32-p272:64:64-i64:64-f80:128-n8:16:32:64-S128"
target triple = "x86_64-pc-linux-gnu"

@.str = private unnamed_addr constant [3 x i8] c"%d\00", align 1
@.str.1 = private unnamed_addr constant [5 x i8] c"%s%s\00", align 1
@.str.2 = private unnamed_addr constant [2 x i8] c"0\00", align 1
@.str.3 = private unnamed_addr constant [2 x i8] c"\0A\00", align 1

; Function Attrs: noinline nounwind uwtable
define dso_local i32 @main() #0 {
  %1 = alloca i32, align 4
  %2 = alloca i32, align 4
  %3 = alloca i32, align 4
  %4 = alloca i32, align 4
  %5 = alloca i32, align 4
  %6 = alloca [250 x i32], align 16
  %7 = alloca [250 x i32], align 16
  %8 = alloca [250 x i32], align 16
  %9 = alloca [250 x i8], align 16
  %10 = alloca [250 x i8], align 16
  store i32 0, i32* %1, align 4
  %11 = call i32 (i8*, ...) @__isoc99_scanf(i8* getelementptr inbounds ([3 x i8], [3 x i8]* @.str, i64 0, i64 0), i32* %5)
  store i32 1, i32* %2, align 4
  br label %12

12:                                               ; preds = %192, %0
  %13 = load i32, i32* %2, align 4
  %14 = load i32, i32* %5, align 4
  %15 = icmp sle i32 %13, %14
  br i1 %15, label %16, label %195

16:                                               ; preds = %12
  store i32 0, i32* %3, align 4
  br label %17

17:                                               ; preds = %36, %16
  %18 = load i32, i32* %3, align 4
  %19 = icmp slt i32 %18, 250
  br i1 %19, label %20, label %39

20:                                               ; preds = %17
  %21 = load i32, i32* %3, align 4
  %22 = sext i32 %21 to i64
  %23 = getelementptr inbounds [250 x i8], [250 x i8]* %9, i64 0, i64 %22
  store i8 0, i8* %23, align 1
  %24 = load i32, i32* %3, align 4
  %25 = sext i32 %24 to i64
  %26 = getelementptr inbounds [250 x i8], [250 x i8]* %10, i64 0, i64 %25
  store i8 0, i8* %26, align 1
  %27 = load i32, i32* %3, align 4
  %28 = sext i32 %27 to i64
  %29 = getelementptr inbounds [250 x i32], [250 x i32]* %6, i64 0, i64 %28
  store i32 0, i32* %29, align 4
  %30 = load i32, i32* %3, align 4
  %31 = sext i32 %30 to i64
  %32 = getelementptr inbounds [250 x i32], [250 x i32]* %7, i64 0, i64 %31
  store i32 0, i32* %32, align 4
  %33 = load i32, i32* %3, align 4
  %34 = sext i32 %33 to i64
  %35 = getelementptr inbounds [250 x i32], [250 x i32]* %8, i64 0, i64 %34
  store i32 0, i32* %35, align 4
  br label %36

36:                                               ; preds = %20
  %37 = load i32, i32* %3, align 4
  %38 = add nsw i32 %37, 1
  store i32 %38, i32* %3, align 4
  br label %17

39:                                               ; preds = %17
  %40 = getelementptr inbounds [250 x i8], [250 x i8]* %9, i64 0, i64 0
  %41 = getelementptr inbounds [250 x i8], [250 x i8]* %10, i64 0, i64 0
  %42 = call i32 (i8*, ...) @__isoc99_scanf(i8* getelementptr inbounds ([5 x i8], [5 x i8]* @.str.1, i64 0, i64 0), i8* %40, i8* %41)
  store i32 249, i32* %3, align 4
  br label %43

43:                                               ; preds = %75, %39
  %44 = load i32, i32* %3, align 4
  %45 = icmp sge i32 %44, 0
  br i1 %45, label %46, label %78

46:                                               ; preds = %43
  %47 = load i32, i32* %3, align 4
  %48 = sext i32 %47 to i64
  %49 = getelementptr inbounds [250 x i8], [250 x i8]* %9, i64 0, i64 %48
  %50 = load i8, i8* %49, align 1
  %51 = sext i8 %50 to i32
  %52 = icmp sge i32 %51, 48
  br i1 %52, label %53, label %74

53:                                               ; preds = %46
  %54 = load i32, i32* %3, align 4
  %55 = sext i32 %54 to i64
  %56 = getelementptr inbounds [250 x i8], [250 x i8]* %9, i64 0, i64 %55
  %57 = load i8, i8* %56, align 1
  %58 = sext i8 %57 to i32
  %59 = icmp sle i32 %58, 57
  br i1 %59, label %60, label %74

60:                                               ; preds = %53
  %61 = load i32, i32* %3, align 4
  %62 = sext i32 %61 to i64
  %63 = getelementptr inbounds [250 x i8], [250 x i8]* %9, i64 0, i64 %62
  %64 = load i8, i8* %63, align 1
  %65 = sext i8 %64 to i32
  %66 = sub nsw i32 %65, 48
  %67 = load i32, i32* %3, align 4
  %68 = add nsw i32 %67, 250
  %69 = sext i32 %68 to i64
  %70 = getelementptr inbounds [250 x i8], [250 x i8]* %9, i64 0, i64 0
  %71 = call i64 @strlen(i8* %70) #3
  %72 = sub i64 %69, %71
  %73 = getelementptr inbounds [250 x i32], [250 x i32]* %6, i64 0, i64 %72
  store i32 %66, i32* %73, align 4
  br label %74

74:                                               ; preds = %60, %53, %46
  br label %75

75:                                               ; preds = %74
  %76 = load i32, i32* %3, align 4
  %77 = add nsw i32 %76, -1
  store i32 %77, i32* %3, align 4
  br label %43

78:                                               ; preds = %43
  store i32 249, i32* %3, align 4
  br label %79

79:                                               ; preds = %111, %78
  %80 = load i32, i32* %3, align 4
  %81 = icmp sge i32 %80, 0
  br i1 %81, label %82, label %114

82:                                               ; preds = %79
  %83 = load i32, i32* %3, align 4
  %84 = sext i32 %83 to i64
  %85 = getelementptr inbounds [250 x i8], [250 x i8]* %10, i64 0, i64 %84
  %86 = load i8, i8* %85, align 1
  %87 = sext i8 %86 to i32
  %88 = icmp sge i32 %87, 48
  br i1 %88, label %89, label %110

89:                                               ; preds = %82
  %90 = load i32, i32* %3, align 4
  %91 = sext i32 %90 to i64
  %92 = getelementptr inbounds [250 x i8], [250 x i8]* %10, i64 0, i64 %91
  %93 = load i8, i8* %92, align 1
  %94 = sext i8 %93 to i32
  %95 = icmp sle i32 %94, 57
  br i1 %95, label %96, label %110

96:                                               ; preds = %89
  %97 = load i32, i32* %3, align 4
  %98 = sext i32 %97 to i64
  %99 = getelementptr inbounds [250 x i8], [250 x i8]* %10, i64 0, i64 %98
  %100 = load i8, i8* %99, align 1
  %101 = sext i8 %100 to i32
  %102 = sub nsw i32 %101, 48
  %103 = load i32, i32* %3, align 4
  %104 = add nsw i32 %103, 250
  %105 = sext i32 %104 to i64
  %106 = getelementptr inbounds [250 x i8], [250 x i8]* %10, i64 0, i64 0
  %107 = call i64 @strlen(i8* %106) #3
  %108 = sub i64 %105, %107
  %109 = getelementptr inbounds [250 x i32], [250 x i32]* %7, i64 0, i64 %108
  store i32 %102, i32* %109, align 4
  br label %110

110:                                              ; preds = %96, %89, %82
  br label %111

111:                                              ; preds = %110
  %112 = load i32, i32* %3, align 4
  %113 = add nsw i32 %112, -1
  store i32 %113, i32* %3, align 4
  br label %79

114:                                              ; preds = %79
  store i32 249, i32* %3, align 4
  br label %115

115:                                              ; preds = %153, %114
  %116 = load i32, i32* %3, align 4
  %117 = icmp sge i32 %116, 0
  br i1 %117, label %118, label %156

118:                                              ; preds = %115
  %119 = load i32, i32* %3, align 4
  %120 = sext i32 %119 to i64
  %121 = getelementptr inbounds [250 x i32], [250 x i32]* %6, i64 0, i64 %120
  %122 = load i32, i32* %121, align 4
  %123 = load i32, i32* %3, align 4
  %124 = sext i32 %123 to i64
  %125 = getelementptr inbounds [250 x i32], [250 x i32]* %7, i64 0, i64 %124
  %126 = load i32, i32* %125, align 4
  %127 = icmp slt i32 %122, %126
  br i1 %127, label %128, label %140

128:                                              ; preds = %118
  %129 = load i32, i32* %3, align 4
  %130 = sext i32 %129 to i64
  %131 = getelementptr inbounds [250 x i32], [250 x i32]* %6, i64 0, i64 %130
  %132 = load i32, i32* %131, align 4
  %133 = add nsw i32 %132, 10
  store i32 %133, i32* %131, align 4
  %134 = load i32, i32* %3, align 4
  %135 = sub nsw i32 %134, 1
  %136 = sext i32 %135 to i64
  %137 = getelementptr inbounds [250 x i32], [250 x i32]* %6, i64 0, i64 %136
  %138 = load i32, i32* %137, align 4
  %139 = add nsw i32 %138, -1
  store i32 %139, i32* %137, align 4
  br label %140

140:                                              ; preds = %128, %118
  %141 = load i32, i32* %3, align 4
  %142 = sext i32 %141 to i64
  %143 = getelementptr inbounds [250 x i32], [250 x i32]* %6, i64 0, i64 %142
  %144 = load i32, i32* %143, align 4
  %145 = load i32, i32* %3, align 4
  %146 = sext i32 %145 to i64
  %147 = getelementptr inbounds [250 x i32], [250 x i32]* %7, i64 0, i64 %146
  %148 = load i32, i32* %147, align 4
  %149 = sub nsw i32 %144, %148
  %150 = load i32, i32* %3, align 4
  %151 = sext i32 %150 to i64
  %152 = getelementptr inbounds [250 x i32], [250 x i32]* %8, i64 0, i64 %151
  store i32 %149, i32* %152, align 4
  br label %153

153:                                              ; preds = %140
  %154 = load i32, i32* %3, align 4
  %155 = add nsw i32 %154, -1
  store i32 %155, i32* %3, align 4
  br label %115

156:                                              ; preds = %115
  store i32 0, i32* %4, align 4
  br label %157

157:                                              ; preds = %168, %156
  %158 = load i32, i32* %4, align 4
  %159 = sext i32 %158 to i64
  %160 = getelementptr inbounds [250 x i32], [250 x i32]* %8, i64 0, i64 %159
  %161 = load i32, i32* %160, align 4
  %162 = icmp sle i32 %161, 0
  br i1 %162, label %163, label %166

163:                                              ; preds = %157
  %164 = load i32, i32* %4, align 4
  %165 = icmp slt i32 %164, 250
  br label %166

166:                                              ; preds = %163, %157
  %167 = phi i1 [ false, %157 ], [ %165, %163 ]
  br i1 %167, label %168, label %171

168:                                              ; preds = %166
  %169 = load i32, i32* %4, align 4
  %170 = add nsw i32 %169, 1
  store i32 %170, i32* %4, align 4
  br label %157

171:                                              ; preds = %166
  %172 = load i32, i32* %4, align 4
  %173 = icmp eq i32 %172, 250
  br i1 %173, label %174, label %176

174:                                              ; preds = %171
  %175 = call i32 (i8*, ...) @printf(i8* getelementptr inbounds ([2 x i8], [2 x i8]* @.str.2, i64 0, i64 0))
  br label %176

176:                                              ; preds = %174, %171
  %177 = load i32, i32* %4, align 4
  store i32 %177, i32* %3, align 4
  br label %178

178:                                              ; preds = %187, %176
  %179 = load i32, i32* %3, align 4
  %180 = icmp slt i32 %179, 250
  br i1 %180, label %181, label %190

181:                                              ; preds = %178
  %182 = load i32, i32* %3, align 4
  %183 = sext i32 %182 to i64
  %184 = getelementptr inbounds [250 x i32], [250 x i32]* %8, i64 0, i64 %183
  %185 = load i32, i32* %184, align 4
  %186 = call i32 (i8*, ...) @printf(i8* getelementptr inbounds ([3 x i8], [3 x i8]* @.str, i64 0, i64 0), i32 %185)
  br label %187

187:                                              ; preds = %181
  %188 = load i32, i32* %3, align 4
  %189 = add nsw i32 %188, 1
  store i32 %189, i32* %3, align 4
  br label %178

190:                                              ; preds = %178
  %191 = call i32 (i8*, ...) @printf(i8* getelementptr inbounds ([2 x i8], [2 x i8]* @.str.3, i64 0, i64 0))
  br label %192

192:                                              ; preds = %190
  %193 = load i32, i32* %2, align 4
  %194 = add nsw i32 %193, 1
  store i32 %194, i32* %2, align 4
  br label %12

195:                                              ; preds = %12
  %196 = load i32, i32* %1, align 4
  ret i32 %196
}

declare dso_local i32 @__isoc99_scanf(i8*, ...) #1

; Function Attrs: nounwind readonly
declare dso_local i64 @strlen(i8*) #2

declare dso_local i32 @printf(i8*, ...) #1


!llvm.module.flags = !{!0}
!llvm.ident = !{!1}

!0 = !{i32 1, !"wchar_size", i32 4}
!1 = !{!"clang version 10.0.0-4ubuntu1 "}
